; Function Attrs: mustprogress uwtable
define void @_ZN7rocksdb6DBImpl27TablesRangeTombstoneSummaryEPNS_18ColumnFamilyHandleEiPNSt7__cxx1112basic_stringIcSt11char_traitsIcESaIcEEE(ptr noalias sret(%"class.rocksdb::Status") align 8 %agg.result, ptr noundef nonnull align 64 dereferenceable(6660) %this, ptr noundef %column_family, i32 noundef %max_entries_to_print, ptr noundef %out_str) local_unnamed_addr #5 align 2 personality ptr @__gxx_personality_v0 {
entry:
  %vtable = load ptr, ptr %column_family, align 8
  %vfn = getelementptr inbounds i8, ptr %vtable, i64 48
  %0 = load ptr, ptr %vfn, align 8
  %call2 = tail call noundef ptr %0(ptr noundef nonnull align 8 dereferenceable(32) %column_family)
  %call3 = tail call noundef ptr @_ZN7rocksdb16ColumnFamilyData25GetReferencedSuperVersionEPNS_6DBImplE(ptr noundef nonnull align 8 dereferenceable(2656) %call2, ptr noundef nonnull %this)
  %current = getelementptr inbounds i8, ptr %call3, i64 24
  %1 = load ptr, ptr %current, align 8
  tail call void @_ZN7rocksdb7Version27TablesRangeTombstoneSummaryEiPNSt7__cxx1112basic_stringIcSt11char_traitsIcESaIcEEE(ptr sret(%"class.rocksdb::Status") align 8 %agg.result, ptr noundef nonnull align 16 dereferenceable(4953) %1, i32 noundef %max_entries_to_print, ptr noundef %out_str)
  invoke void @_ZN7rocksdb6DBImpl19CleanupSuperVersionEPNS_12SuperVersionE(ptr noundef nonnull align 64 dereferenceable(6660) %this, ptr noundef %call3)
          to label %nrvo.skipdtor unwind label %lpad

lpad:                                             ; preds = %entry
  %2 = landingpad { ptr, i32 }
          cleanup
  %state_.i = getelementptr inbounds i8, ptr %agg.result, i64 8
  %3 = load ptr, ptr %state_.i, align 8
  %cmp.not.i.i = icmp eq ptr %3, null
  br i1 %cmp.not.i.i, label %_ZN7rocksdb6StatusD2Ev.exit, label %_ZNKSt14default_deleteIA_KcEclIS0_EENSt9enable_ifIXsr14is_convertibleIPA_T_PS1_EE5valueEvE4typeEPS5_.exit.i.i

_ZNKSt14default_deleteIA_KcEclIS0_EENSt9enable_ifIXsr14is_convertibleIPA_T_PS1_EE5valueEvE4typeEPS5_.exit.i.i: ; preds = %lpad
  tail call void @_ZdaPv(ptr noundef nonnull %3) #33
  br label %_ZN7rocksdb6StatusD2Ev.exit

_ZN7rocksdb6StatusD2Ev.exit:                      ; preds = %lpad, %_ZNKSt14default_deleteIA_KcEclIS0_EENSt9enable_ifIXsr14is_convertibleIPA_T_PS1_EE5valueEvE4typeEPS5_.exit.i.i
  store ptr null, ptr %state_.i, align 8
  resume { ptr, i32 } %2

nrvo.skipdtor:                                    ; preds = %entry
  ret void
}